

Microchip Technology PIC LITE Macro Assembler V1.38 build -256452561 
                                                                                               Wed Dec 14 13:36:03 2016

Microchip Technology Omniscient Code Generator v1.38 (Free mode) build 201607010351
     1                           	processor	16F1825
     2                           	opt	pw 120
     3                           	opt	lm
     4                           	psect	idataCOMMON,global,class=CODE,delta=2
     5                           	psect	idataBANK0,global,class=CODE,delta=2
     6                           	psect	cinit,global,class=CODE,merge=1,delta=2
     7                           	psect	bssCOMMON,global,class=COMMON,space=1,delta=1
     8                           	psect	dataCOMMON,global,class=COMMON,space=1,delta=1
     9                           	psect	bssBANK0,global,class=BANK0,space=1,delta=1
    10                           	psect	dataBANK0,global,class=BANK0,space=1,delta=1
    11                           	psect	inittext,global,class=CODE,delta=2
    12                           	psect	cstackCOMMON,global,class=COMMON,space=1,delta=1
    13                           	psect	cstackBANK0,global,class=BANK0,space=1,delta=1
    14                           	psect	maintext,global,class=CODE,merge=1,split=1,delta=2
    15                           	psect	text1,local,class=CODE,merge=1,delta=2
    16                           	psect	text2,local,class=CODE,merge=1,delta=2
    17                           	psect	intentry,global,class=CODE,delta=2
    18                           	psect	text4,local,class=CODE,merge=1,delta=2
    19                           	psect	text5,local,class=CODE,merge=1,delta=2
    20                           	psect	text6,local,class=CODE,merge=1,delta=2
    21                           	dabs	1,0x7E,2
    22  0000                     	;# 
    23  0001                     	;# 
    24  0002                     	;# 
    25  0003                     	;# 
    26  0004                     	;# 
    27  0005                     	;# 
    28  0006                     	;# 
    29  0007                     	;# 
    30  0008                     	;# 
    31  0009                     	;# 
    32  000A                     	;# 
    33  000B                     	;# 
    34  000C                     	;# 
    35  000E                     	;# 
    36  0011                     	;# 
    37  0012                     	;# 
    38  0013                     	;# 
    39  0015                     	;# 
    40  0016                     	;# 
    41  0016                     	;# 
    42  0017                     	;# 
    43  0018                     	;# 
    44  0019                     	;# 
    45  001A                     	;# 
    46  001B                     	;# 
    47  001C                     	;# 
    48  001E                     	;# 
    49  001F                     	;# 
    50  008C                     	;# 
    51  008E                     	;# 
    52  0091                     	;# 
    53  0092                     	;# 
    54  0093                     	;# 
    55  0095                     	;# 
    56  0096                     	;# 
    57  0097                     	;# 
    58  0098                     	;# 
    59  0099                     	;# 
    60  009A                     	;# 
    61  009B                     	;# 
    62  009B                     	;# 
    63  009C                     	;# 
    64  009D                     	;# 
    65  009E                     	;# 
    66  010C                     	;# 
    67  010E                     	;# 
    68  0111                     	;# 
    69  0112                     	;# 
    70  0113                     	;# 
    71  0114                     	;# 
    72  0115                     	;# 
    73  0116                     	;# 
    74  0117                     	;# 
    75  0118                     	;# 
    76  0119                     	;# 
    77  011A                     	;# 
    78  011B                     	;# 
    79  011D                     	;# 
    80  011E                     	;# 
    81  018C                     	;# 
    82  018E                     	;# 
    83  0191                     	;# 
    84  0191                     	;# 
    85  0192                     	;# 
    86  0193                     	;# 
    87  0193                     	;# 
    88  0193                     	;# 
    89  0194                     	;# 
    90  0195                     	;# 
    91  0196                     	;# 
    92  0199                     	;# 
    93  019A                     	;# 
    94  019B                     	;# 
    95  019B                     	;# 
    96  019C                     	;# 
    97  019D                     	;# 
    98  019E                     	;# 
    99  019F                     	;# 
   100  020C                     	;# 
   101  020E                     	;# 
   102  0211                     	;# 
   103  0211                     	;# 
   104  0212                     	;# 
   105  0212                     	;# 
   106  0213                     	;# 
   107  0213                     	;# 
   108  0214                     	;# 
   109  0214                     	;# 
   110  0215                     	;# 
   111  0215                     	;# 
   112  0215                     	;# 
   113  0216                     	;# 
   114  0216                     	;# 
   115  0217                     	;# 
   116  0217                     	;# 
   117  0291                     	;# 
   118  0291                     	;# 
   119  0292                     	;# 
   120  0293                     	;# 
   121  0294                     	;# 
   122  0295                     	;# 
   123  0295                     	;# 
   124  0296                     	;# 
   125  0298                     	;# 
   126  0298                     	;# 
   127  0299                     	;# 
   128  029A                     	;# 
   129  029B                     	;# 
   130  029C                     	;# 
   131  029D                     	;# 
   132  029E                     	;# 
   133  0311                     	;# 
   134  0311                     	;# 
   135  0312                     	;# 
   136  0313                     	;# 
   137  0318                     	;# 
   138  0318                     	;# 
   139  0319                     	;# 
   140  031A                     	;# 
   141  038C                     	;# 
   142  038E                     	;# 
   143  0391                     	;# 
   144  0392                     	;# 
   145  0393                     	;# 
   146  039A                     	;# 
   147  039C                     	;# 
   148  039D                     	;# 
   149  039E                     	;# 
   150  039F                     	;# 
   151  0415                     	;# 
   152  0416                     	;# 
   153  0417                     	;# 
   154  041C                     	;# 
   155  041D                     	;# 
   156  041E                     	;# 
   157  0FE4                     	;# 
   158  0FE5                     	;# 
   159  0FE6                     	;# 
   160  0FE7                     	;# 
   161  0FE8                     	;# 
   162  0FE9                     	;# 
   163  0FEA                     	;# 
   164  0FEB                     	;# 
   165  0FED                     	;# 
   166  0FEE                     	;# 
   167  0FEF                     	;# 
   168  0000                     	;# 
   169  0001                     	;# 
   170  0002                     	;# 
   171  0003                     	;# 
   172  0004                     	;# 
   173  0005                     	;# 
   174  0006                     	;# 
   175  0007                     	;# 
   176  0008                     	;# 
   177  0009                     	;# 
   178  000A                     	;# 
   179  000B                     	;# 
   180  000C                     	;# 
   181  000E                     	;# 
   182  0011                     	;# 
   183  0012                     	;# 
   184  0013                     	;# 
   185  0015                     	;# 
   186  0016                     	;# 
   187  0016                     	;# 
   188  0017                     	;# 
   189  0018                     	;# 
   190  0019                     	;# 
   191  001A                     	;# 
   192  001B                     	;# 
   193  001C                     	;# 
   194  001E                     	;# 
   195  001F                     	;# 
   196  008C                     	;# 
   197  008E                     	;# 
   198  0091                     	;# 
   199  0092                     	;# 
   200  0093                     	;# 
   201  0095                     	;# 
   202  0096                     	;# 
   203  0097                     	;# 
   204  0098                     	;# 
   205  0099                     	;# 
   206  009A                     	;# 
   207  009B                     	;# 
   208  009B                     	;# 
   209  009C                     	;# 
   210  009D                     	;# 
   211  009E                     	;# 
   212  010C                     	;# 
   213  010E                     	;# 
   214  0111                     	;# 
   215  0112                     	;# 
   216  0113                     	;# 
   217  0114                     	;# 
   218  0115                     	;# 
   219  0116                     	;# 
   220  0117                     	;# 
   221  0118                     	;# 
   222  0119                     	;# 
   223  011A                     	;# 
   224  011B                     	;# 
   225  011D                     	;# 
   226  011E                     	;# 
   227  018C                     	;# 
   228  018E                     	;# 
   229  0191                     	;# 
   230  0191                     	;# 
   231  0192                     	;# 
   232  0193                     	;# 
   233  0193                     	;# 
   234  0193                     	;# 
   235  0194                     	;# 
   236  0195                     	;# 
   237  0196                     	;# 
   238  0199                     	;# 
   239  019A                     	;# 
   240  019B                     	;# 
   241  019B                     	;# 
   242  019C                     	;# 
   243  019D                     	;# 
   244  019E                     	;# 
   245  019F                     	;# 
   246  020C                     	;# 
   247  020E                     	;# 
   248  0211                     	;# 
   249  0211                     	;# 
   250  0212                     	;# 
   251  0212                     	;# 
   252  0213                     	;# 
   253  0213                     	;# 
   254  0214                     	;# 
   255  0214                     	;# 
   256  0215                     	;# 
   257  0215                     	;# 
   258  0215                     	;# 
   259  0216                     	;# 
   260  0216                     	;# 
   261  0217                     	;# 
   262  0217                     	;# 
   263  0291                     	;# 
   264  0291                     	;# 
   265  0292                     	;# 
   266  0293                     	;# 
   267  0294                     	;# 
   268  0295                     	;# 
   269  0295                     	;# 
   270  0296                     	;# 
   271  0298                     	;# 
   272  0298                     	;# 
   273  0299                     	;# 
   274  029A                     	;# 
   275  029B                     	;# 
   276  029C                     	;# 
   277  029D                     	;# 
   278  029E                     	;# 
   279  0311                     	;# 
   280  0311                     	;# 
   281  0312                     	;# 
   282  0313                     	;# 
   283  0318                     	;# 
   284  0318                     	;# 
   285  0319                     	;# 
   286  031A                     	;# 
   287  038C                     	;# 
   288  038E                     	;# 
   289  0391                     	;# 
   290  0392                     	;# 
   291  0393                     	;# 
   292  039A                     	;# 
   293  039C                     	;# 
   294  039D                     	;# 
   295  039E                     	;# 
   296  039F                     	;# 
   297  0415                     	;# 
   298  0416                     	;# 
   299  0417                     	;# 
   300  041C                     	;# 
   301  041D                     	;# 
   302  041E                     	;# 
   303  0FE4                     	;# 
   304  0FE5                     	;# 
   305  0FE6                     	;# 
   306  0FE7                     	;# 
   307  0FE8                     	;# 
   308  0FE9                     	;# 
   309  0FEA                     	;# 
   310  0FEB                     	;# 
   311  0FED                     	;# 
   312  0FEE                     	;# 
   313  0FEF                     	;# 
   314  0000                     	;# 
   315  0001                     	;# 
   316  0002                     	;# 
   317  0003                     	;# 
   318  0004                     	;# 
   319  0005                     	;# 
   320  0006                     	;# 
   321  0007                     	;# 
   322  0008                     	;# 
   323  0009                     	;# 
   324  000A                     	;# 
   325  000B                     	;# 
   326  000C                     	;# 
   327  000E                     	;# 
   328  0011                     	;# 
   329  0012                     	;# 
   330  0013                     	;# 
   331  0015                     	;# 
   332  0016                     	;# 
   333  0016                     	;# 
   334  0017                     	;# 
   335  0018                     	;# 
   336  0019                     	;# 
   337  001A                     	;# 
   338  001B                     	;# 
   339  001C                     	;# 
   340  001E                     	;# 
   341  001F                     	;# 
   342  008C                     	;# 
   343  008E                     	;# 
   344  0091                     	;# 
   345  0092                     	;# 
   346  0093                     	;# 
   347  0095                     	;# 
   348  0096                     	;# 
   349  0097                     	;# 
   350  0098                     	;# 
   351  0099                     	;# 
   352  009A                     	;# 
   353  009B                     	;# 
   354  009B                     	;# 
   355  009C                     	;# 
   356  009D                     	;# 
   357  009E                     	;# 
   358  010C                     	;# 
   359  010E                     	;# 
   360  0111                     	;# 
   361  0112                     	;# 
   362  0113                     	;# 
   363  0114                     	;# 
   364  0115                     	;# 
   365  0116                     	;# 
   366  0117                     	;# 
   367  0118                     	;# 
   368  0119                     	;# 
   369  011A                     	;# 
   370  011B                     	;# 
   371  011D                     	;# 
   372  011E                     	;# 
   373  018C                     	;# 
   374  018E                     	;# 
   375  0191                     	;# 
   376  0191                     	;# 
   377  0192                     	;# 
   378  0193                     	;# 
   379  0193                     	;# 
   380  0193                     	;# 
   381  0194                     	;# 
   382  0195                     	;# 
   383  0196                     	;# 
   384  0199                     	;# 
   385  019A                     	;# 
   386  019B                     	;# 
   387  019B                     	;# 
   388  019C                     	;# 
   389  019D                     	;# 
   390  019E                     	;# 
   391  019F                     	;# 
   392  020C                     	;# 
   393  020E                     	;# 
   394  0211                     	;# 
   395  0211                     	;# 
   396  0212                     	;# 
   397  0212                     	;# 
   398  0213                     	;# 
   399  0213                     	;# 
   400  0214                     	;# 
   401  0214                     	;# 
   402  0215                     	;# 
   403  0215                     	;# 
   404  0215                     	;# 
   405  0216                     	;# 
   406  0216                     	;# 
   407  0217                     	;# 
   408  0217                     	;# 
   409  0291                     	;# 
   410  0291                     	;# 
   411  0292                     	;# 
   412  0293                     	;# 
   413  0294                     	;# 
   414  0295                     	;# 
   415  0295                     	;# 
   416  0296                     	;# 
   417  0298                     	;# 
   418  0298                     	;# 
   419  0299                     	;# 
   420  029A                     	;# 
   421  029B                     	;# 
   422  029C                     	;# 
   423  029D                     	;# 
   424  029E                     	;# 
   425  0311                     	;# 
   426  0311                     	;# 
   427  0312                     	;# 
   428  0313                     	;# 
   429  0318                     	;# 
   430  0318                     	;# 
   431  0319                     	;# 
   432  031A                     	;# 
   433  038C                     	;# 
   434  038E                     	;# 
   435  0391                     	;# 
   436  0392                     	;# 
   437  0393                     	;# 
   438  039A                     	;# 
   439  039C                     	;# 
   440  039D                     	;# 
   441  039E                     	;# 
   442  039F                     	;# 
   443  0415                     	;# 
   444  0416                     	;# 
   445  0417                     	;# 
   446  041C                     	;# 
   447  041D                     	;# 
   448  041E                     	;# 
   449  0FE4                     	;# 
   450  0FE5                     	;# 
   451  0FE6                     	;# 
   452  0FE7                     	;# 
   453  0FE8                     	;# 
   454  0FE9                     	;# 
   455  0FEA                     	;# 
   456  0FEB                     	;# 
   457  0FED                     	;# 
   458  0FEE                     	;# 
   459  0FEF                     	;# 
   460  0000                     	;# 
   461  0001                     	;# 
   462  0002                     	;# 
   463  0003                     	;# 
   464  0004                     	;# 
   465  0005                     	;# 
   466  0006                     	;# 
   467  0007                     	;# 
   468  0008                     	;# 
   469  0009                     	;# 
   470  000A                     	;# 
   471  000B                     	;# 
   472  000C                     	;# 
   473  000E                     	;# 
   474  0011                     	;# 
   475  0012                     	;# 
   476  0013                     	;# 
   477  0015                     	;# 
   478  0016                     	;# 
   479  0016                     	;# 
   480  0017                     	;# 
   481  0018                     	;# 
   482  0019                     	;# 
   483  001A                     	;# 
   484  001B                     	;# 
   485  001C                     	;# 
   486  001E                     	;# 
   487  001F                     	;# 
   488  008C                     	;# 
   489  008E                     	;# 
   490  0091                     	;# 
   491  0092                     	;# 
   492  0093                     	;# 
   493  0095                     	;# 
   494  0096                     	;# 
   495  0097                     	;# 
   496  0098                     	;# 
   497  0099                     	;# 
   498  009A                     	;# 
   499  009B                     	;# 
   500  009B                     	;# 
   501  009C                     	;# 
   502  009D                     	;# 
   503  009E                     	;# 
   504  010C                     	;# 
   505  010E                     	;# 
   506  0111                     	;# 
   507  0112                     	;# 
   508  0113                     	;# 
   509  0114                     	;# 
   510  0115                     	;# 
   511  0116                     	;# 
   512  0117                     	;# 
   513  0118                     	;# 
   514  0119                     	;# 
   515  011A                     	;# 
   516  011B                     	;# 
   517  011D                     	;# 
   518  011E                     	;# 
   519  018C                     	;# 
   520  018E                     	;# 
   521  0191                     	;# 
   522  0191                     	;# 
   523  0192                     	;# 
   524  0193                     	;# 
   525  0193                     	;# 
   526  0193                     	;# 
   527  0194                     	;# 
   528  0195                     	;# 
   529  0196                     	;# 
   530  0199                     	;# 
   531  019A                     	;# 
   532  019B                     	;# 
   533  019B                     	;# 
   534  019C                     	;# 
   535  019D                     	;# 
   536  019E                     	;# 
   537  019F                     	;# 
   538  020C                     	;# 
   539  020E                     	;# 
   540  0211                     	;# 
   541  0211                     	;# 
   542  0212                     	;# 
   543  0212                     	;# 
   544  0213                     	;# 
   545  0213                     	;# 
   546  0214                     	;# 
   547  0214                     	;# 
   548  0215                     	;# 
   549  0215                     	;# 
   550  0215                     	;# 
   551  0216                     	;# 
   552  0216                     	;# 
   553  0217                     	;# 
   554  0217                     	;# 
   555  0291                     	;# 
   556  0291                     	;# 
   557  0292                     	;# 
   558  0293                     	;# 
   559  0294                     	;# 
   560  0295                     	;# 
   561  0295                     	;# 
   562  0296                     	;# 
   563  0298                     	;# 
   564  0298                     	;# 
   565  0299                     	;# 
   566  029A                     	;# 
   567  029B                     	;# 
   568  029C                     	;# 
   569  029D                     	;# 
   570  029E                     	;# 
   571  0311                     	;# 
   572  0311                     	;# 
   573  0312                     	;# 
   574  0313                     	;# 
   575  0318                     	;# 
   576  0318                     	;# 
   577  0319                     	;# 
   578  031A                     	;# 
   579  038C                     	;# 
   580  038E                     	;# 
   581  0391                     	;# 
   582  0392                     	;# 
   583  0393                     	;# 
   584  039A                     	;# 
   585  039C                     	;# 
   586  039D                     	;# 
   587  039E                     	;# 
   588  039F                     	;# 
   589  0415                     	;# 
   590  0416                     	;# 
   591  0417                     	;# 
   592  041C                     	;# 
   593  041D                     	;# 
   594  041E                     	;# 
   595  0FE4                     	;# 
   596  0FE5                     	;# 
   597  0FE6                     	;# 
   598  0FE7                     	;# 
   599  0FE8                     	;# 
   600  0FE9                     	;# 
   601  0FEA                     	;# 
   602  0FEB                     	;# 
   603  0FED                     	;# 
   604  0FEE                     	;# 
   605  0FEF                     	;# 
   606  0000                     	;# 
   607  0001                     	;# 
   608  0002                     	;# 
   609  0003                     	;# 
   610  0004                     	;# 
   611  0005                     	;# 
   612  0006                     	;# 
   613  0007                     	;# 
   614  0008                     	;# 
   615  0009                     	;# 
   616  000A                     	;# 
   617  000B                     	;# 
   618  000C                     	;# 
   619  000E                     	;# 
   620  0011                     	;# 
   621  0012                     	;# 
   622  0013                     	;# 
   623  0015                     	;# 
   624  0016                     	;# 
   625  0016                     	;# 
   626  0017                     	;# 
   627  0018                     	;# 
   628  0019                     	;# 
   629  001A                     	;# 
   630  001B                     	;# 
   631  001C                     	;# 
   632  001E                     	;# 
   633  001F                     	;# 
   634  008C                     	;# 
   635  008E                     	;# 
   636  0091                     	;# 
   637  0092                     	;# 
   638  0093                     	;# 
   639  0095                     	;# 
   640  0096                     	;# 
   641  0097                     	;# 
   642  0098                     	;# 
   643  0099                     	;# 
   644  009A                     	;# 
   645  009B                     	;# 
   646  009B                     	;# 
   647  009C                     	;# 
   648  009D                     	;# 
   649  009E                     	;# 
   650  010C                     	;# 
   651  010E                     	;# 
   652  0111                     	;# 
   653  0112                     	;# 
   654  0113                     	;# 
   655  0114                     	;# 
   656  0115                     	;# 
   657  0116                     	;# 
   658  0117                     	;# 
   659  0118                     	;# 
   660  0119                     	;# 
   661  011A                     	;# 
   662  011B                     	;# 
   663  011D                     	;# 
   664  011E                     	;# 
   665  018C                     	;# 
   666  018E                     	;# 
   667  0191                     	;# 
   668  0191                     	;# 
   669  0192                     	;# 
   670  0193                     	;# 
   671  0193                     	;# 
   672  0193                     	;# 
   673  0194                     	;# 
   674  0195                     	;# 
   675  0196                     	;# 
   676  0199                     	;# 
   677  019A                     	;# 
   678  019B                     	;# 
   679  019B                     	;# 
   680  019C                     	;# 
   681  019D                     	;# 
   682  019E                     	;# 
   683  019F                     	;# 
   684  020C                     	;# 
   685  020E                     	;# 
   686  0211                     	;# 
   687  0211                     	;# 
   688  0212                     	;# 
   689  0212                     	;# 
   690  0213                     	;# 
   691  0213                     	;# 
   692  0214                     	;# 
   693  0214                     	;# 
   694  0215                     	;# 
   695  0215                     	;# 
   696  0215                     	;# 
   697  0216                     	;# 
   698  0216                     	;# 
   699  0217                     	;# 
   700  0217                     	;# 
   701  0291                     	;# 
   702  0291                     	;# 
   703  0292                     	;# 
   704  0293                     	;# 
   705  0294                     	;# 
   706  0295                     	;# 
   707  0295                     	;# 
   708  0296                     	;# 
   709  0298                     	;# 
   710  0298                     	;# 
   711  0299                     	;# 
   712  029A                     	;# 
   713  029B                     	;# 
   714  029C                     	;# 
   715  029D                     	;# 
   716  029E                     	;# 
   717  0311                     	;# 
   718  0311                     	;# 
   719  0312                     	;# 
   720  0313                     	;# 
   721  0318                     	;# 
   722  0318                     	;# 
   723  0319                     	;# 
   724  031A                     	;# 
   725  038C                     	;# 
   726  038E                     	;# 
   727  0391                     	;# 
   728  0392                     	;# 
   729  0393                     	;# 
   730  039A                     	;# 
   731  039C                     	;# 
   732  039D                     	;# 
   733  039E                     	;# 
   734  039F                     	;# 
   735  0415                     	;# 
   736  0416                     	;# 
   737  0417                     	;# 
   738  041C                     	;# 
   739  041D                     	;# 
   740  041E                     	;# 
   741  0FE4                     	;# 
   742  0FE5                     	;# 
   743  0FE6                     	;# 
   744  0FE7                     	;# 
   745  0FE8                     	;# 
   746  0FE9                     	;# 
   747  0FEA                     	;# 
   748  0FEB                     	;# 
   749  0FED                     	;# 
   750  0FEE                     	;# 
   751  0FEF                     	;# 
   752                           
   753                           	psect	idataCOMMON
   754  0185                     __pidataCOMMON:	
   755                           
   756                           ;initializer for _fade_frame_counter
   757  0185  3401               	retlw	1
   758  0186  3400               	retlw	0
   759                           
   760                           	psect	idataBANK0
   761  015E                     __pidataBANK0:	
   762                           
   763                           ;initializer for _current_frame
   764  015E  3408               	retlw	8
   765  015F  3407               	retlw	7
   766  0160  3406               	retlw	6
   767  0161  3405               	retlw	5
   768  0162  3404               	retlw	4
   769  0163  3403               	retlw	3
   770  0164  3402               	retlw	2
   771  0165  3401               	retlw	1
   772  0166  3400               	retlw	0
   773  0167  3408               	retlw	8
   774  0168  3407               	retlw	7
   775  0169  3406               	retlw	6
   776  016A  3405               	retlw	5
   777  016B  3404               	retlw	4
   778  016C  3403               	retlw	3
   779  016D  3402               	retlw	2
   780  016E  3401               	retlw	1
   781  016F  3400               	retlw	0
   782  001E                     _CPSCON0bits	set	30
   783  000B                     _INTCONbits	set	11
   784  009D                     _ADCON0bits	set	157
   785  0095                     _OPTION_REGbits	set	149
   786  0099                     _OSCCONbits	set	153
   787  008C                     _TRISA	set	140
   788  008E                     _TRISC	set	142
   789  011D                     _APFCON0bits	set	285
   790  0111                     _CM1CON0bits	set	273
   791  0113                     _CM2CON0bits	set	275
   792  0118                     _DACCON0bits	set	280
   793  0117                     _FVRCONbits	set	279
   794  010C                     _LATA	set	268
   795  010E                     _LATC	set	270
   796  010E                     _LATCbits	set	270
   797  011A                     _SRCON0bits	set	282
   798  018C                     _ANSELA	set	396
   799  018E                     _ANSELC	set	398
   800  0211                     _SSP1BUF	set	529
   801  0215                     _SSP1CON1bits	set	533
   802  0214                     _SSP1STATbits	set	532
   803  020C                     _WPUA	set	524
   804  020E                     _WPUC	set	526
   805  038C                     _INLVLA	set	908
   806  038E                     _INLVLC	set	910
   807  0392                     _IOCAN	set	914
   808  0391                     _IOCAP	set	913
   809  039C                     _MDCONbits	set	924
   810                           
   811                           ; #config settings
   812  0000                     
   813                           	psect	cinit
   814  0054                     start_initialization:	
   815  0054                     __initialization:	
   816                           
   817                           ; Initialize objects allocated to COMMON
   818  0054  3181  2185  3180   	fcall	__pidataCOMMON	;fetch initializer
   819  0057  00FC               	movwf	__pdataCOMMON& (0+127)
   820  0058  3181  2186  3180   	fcall	__pidataCOMMON+1	;fetch initializer
   821  005B  00FD               	movwf	(__pdataCOMMON+1)& (0+127)
   822                           
   823                           ; Initialize objects allocated to BANK0
   824  005C  305E               	movlw	low __pidataBANK0
   825  005D  0084               	movwf	4
   826  005E  3081               	movlw	(high __pidataBANK0)| (0+128)
   827  005F  0085               	movwf	5
   828  0060  3020               	movlw	low __pdataBANK0
   829  0061  0086               	movwf	6
   830  0062  3000               	movlw	high __pdataBANK0
   831  0063  0087               	movwf	7
   832  0064  3012               	movlw	18
   833  0065  3181  217F         	fcall	init_ram
   834                           
   835                           ; Clear objects allocated to COMMON
   836  0067  01F0               	clrf	__pbssCOMMON& (0+127)
   837  0068  01F1               	clrf	(__pbssCOMMON+1)& (0+127)
   838  0069  01F2               	clrf	(__pbssCOMMON+2)& (0+127)
   839  006A  01F3               	clrf	(__pbssCOMMON+3)& (0+127)
   840  006B  01F4               	clrf	(__pbssCOMMON+4)& (0+127)
   841  006C  01F5               	clrf	(__pbssCOMMON+5)& (0+127)
   842                           
   843                           ; Clear objects allocated to BANK0
   844  006D  01B2               	clrf	__pbssBANK0& (0+127)
   845  006E  01B3               	clrf	(__pbssBANK0+1)& (0+127)
   846  006F  01B4               	clrf	(__pbssBANK0+2)& (0+127)
   847  0070  01B5               	clrf	(__pbssBANK0+3)& (0+127)
   848  0071                     end_of_initialization:	
   849                           ;End of C runtime variable initialization code
   850                           
   851  0071                     __end_of__initialization:	
   852  0071  107E               	bcf	int$flags,0	;clear compiler interrupt flag (level 1)
   853  0072  0020               	movlb	0
   854  0073  3181  2978         	ljmp	_main	;jump to C main() function
   855                           
   856                           	psect	bssCOMMON
   857  0070                     __pbssCOMMON:	
   858  0070                     _fade_frame:	
   859  0070                     	ds	3
   860  0073                     _clear_buffer_flag:	
   861  0073                     	ds	1
   862  0074                     _multiplexed_segment_counter:	
   863  0074                     	ds	2
   864                           
   865                           	psect	dataCOMMON
   866  007C                     __pdataCOMMON:	
   867  007C                     _fade_frame_counter:	
   868  007C                     	ds	2
   869                           
   870                           	psect	bssBANK0
   871  0032                     __pbssBANK0:	
   872  0032                     _multiplexed_counter:	
   873  0032                     	ds	2
   874  0034                     _next_frame_counter:	
   875  0034                     	ds	2
   876                           
   877                           	psect	dataBANK0
   878  0020                     __pdataBANK0:	
   879  0020                     _current_frame:	
   880  0020                     	ds	18
   881                           
   882                           	psect	inittext
   883  017F                     init_ram:	
   884  017F  00FE               	movwf	126
   885  0180                     initloop:	
   886  0180  0012               	moviw fsr0++
   887  0181  001E               	movwi fsr1++
   888  0182  0BFE               	decfsz	126,f
   889  0183  2980               	goto	initloop
   890  0184  3400               	retlw	0
   891                           
   892                           	psect	cstackCOMMON
   893  0076                     __pcstackCOMMON:	
   894  0076                     ?_write_leds:	
   895  0076                     ??_write_leds:	
   896                           ; 1 bytes @ 0x0
   897                           
   898  0076                     ?_update_fade:	
   899                           ; 1 bytes @ 0x0
   900                           
   901  0076                     ??_update_fade:	
   902                           ; 1 bytes @ 0x0
   903                           
   904  0076                     ?_get_next_frame:	
   905                           ; 1 bytes @ 0x0
   906                           
   907  0076                     ??_get_next_frame:	
   908                           ; 1 bytes @ 0x0
   909                           
   910  0076                     ?_ConfigureOscillator:	
   911                           ; 1 bytes @ 0x0
   912                           
   913  0076                     ?_InitApp:	
   914                           ; 1 bytes @ 0x0
   915                           
   916  0076                     ?_isr:	
   917                           ; 1 bytes @ 0x0
   918                           
   919  0076                     ?_main:	
   920                           ; 1 bytes @ 0x0
   921                           
   922                           
   923                           ; 1 bytes @ 0x0
   924  0076                     	ds	1
   925  0077                     get_next_frame@temp:	
   926                           
   927                           ; 1 bytes @ 0x1
   928  0077                     	ds	1
   929  0078                     get_next_frame@i:	
   930                           
   931                           ; 2 bytes @ 0x2
   932  0078                     	ds	1
   933  0079                     update_fade@i:	
   934                           
   935                           ; 2 bytes @ 0x3
   936  0079                     	ds	2
   937  007B                     ??_isr:	
   938                           
   939                           ; 1 bytes @ 0x5
   940  007B                     	ds	1
   941                           
   942                           	psect	cstackBANK0
   943  0000                     __pcstackBANK0:	
   944  0000                     ??_ConfigureOscillator:	
   945  0000                     ??_InitApp:	
   946                           ; 1 bytes @ 0x0
   947                           
   948  0000                     ??_main:	
   949                           ; 1 bytes @ 0x0
   950                           
   951                           
   952                           	psect	maintext
   953  0178                     __pmaintext:	
   954                           ; 1 bytes @ 0x0
   955 ;;
   956 ;;Main: autosize = 0, tempsize = 0, incstack = 0, save=0
   957 ;;
   958 ;; *************** function _main *****************
   959 ;; Defined at:
   960 ;;		line 36 in file "main.c"
   961 ;; Parameters:    Size  Location     Type
   962 ;;		None
   963 ;; Auto vars:     Size  Location     Type
   964 ;;		None
   965 ;; Return value:  Size  Location     Type
   966 ;;                  1    wreg      void 
   967 ;; Registers used:
   968 ;;		wreg, status,2, status,0, pclath, cstack
   969 ;; Tracked objects:
   970 ;;		On entry : B1F/0
   971 ;;		On exit  : 0/0
   972 ;;		Unchanged: 0/0
   973 ;; Data sizes:     COMMON   BANK0   BANK1   BANK2   BANK3   BANK4   BANK5   BANK6   BANK7   BANK8   BANK9  BANK10  BANK1
      +1  BANK12
   974 ;;      Params:         0       0       0       0       0       0       0       0       0       0       0       0       
      +0       0
   975 ;;      Locals:         0       0       0       0       0       0       0       0       0       0       0       0       
      +0       0
   976 ;;      Temps:          0       0       0       0       0       0       0       0       0       0       0       0       
      +0       0
   977 ;;      Totals:         0       0       0       0       0       0       0       0       0       0       0       0       
      +0       0
   978 ;;Total ram usage:        0 bytes
   979 ;; Hardware stack levels required when called:    3
   980 ;; This function calls:
   981 ;;		_ConfigureOscillator
   982 ;;		_InitApp
   983 ;; This function is called by:
   984 ;;		Startup code after reset
   985 ;; This function uses a non-reentrant model
   986 ;;
   987                           
   988                           
   989                           ;psect for function _main
   990  0178                     _main:	
   991                           
   992                           ;main.c: 39: ConfigureOscillator();
   993                           
   994                           ;incstack = 0
   995                           ; Regs used in _main: [wreg+status,2+status,0+pclath+cstack]
   996  0178  3181  2170  3181   	fcall	_ConfigureOscillator
   997                           
   998                           ;main.c: 42: InitApp();
   999  017B  3180  20BF  3181   	fcall	_InitApp
  1000  017E                     l45:	
  1001                           ;main.c: 44: while(1)
  1002                           
  1003                           
  1004                           ;main.c: 45: {
  1005  017E  297E               	goto	l45
  1006  017F                     __end_of_main:	
  1007                           
  1008                           	psect	text1
  1009  00BF                     __ptext1:	
  1010 ;; *************** function _InitApp *****************
  1011 ;; Defined at:
  1012 ;;		line 31 in file "user.c"
  1013 ;; Parameters:    Size  Location     Type
  1014 ;;		None
  1015 ;; Auto vars:     Size  Location     Type
  1016 ;;		None
  1017 ;; Return value:  Size  Location     Type
  1018 ;;                  1    wreg      void 
  1019 ;; Registers used:
  1020 ;;		wreg, status,2, status,0
  1021 ;; Tracked objects:
  1022 ;;		On entry : 0/0
  1023 ;;		On exit  : 0/0
  1024 ;;		Unchanged: 0/0
  1025 ;; Data sizes:     COMMON   BANK0   BANK1   BANK2   BANK3   BANK4   BANK5   BANK6   BANK7   BANK8   BANK9  BANK10  BANK1
      +1  BANK12
  1026 ;;      Params:         0       0       0       0       0       0       0       0       0       0       0       0       
      +0       0
  1027 ;;      Locals:         0       0       0       0       0       0       0       0       0       0       0       0       
      +0       0
  1028 ;;      Temps:          0       0       0       0       0       0       0       0       0       0       0       0       
      +0       0
  1029 ;;      Totals:         0       0       0       0       0       0       0       0       0       0       0       0       
      +0       0
  1030 ;;Total ram usage:        0 bytes
  1031 ;; Hardware stack levels used:    1
  1032 ;; Hardware stack levels required when called:    2
  1033 ;; This function calls:
  1034 ;;		Nothing
  1035 ;; This function is called by:
  1036 ;;		_main
  1037 ;; This function uses a non-reentrant model
  1038 ;;
  1039                           
  1040                           
  1041                           ;psect for function _InitApp
  1042  00BF                     _InitApp:	
  1043                           
  1044                           ;user.c: 36: WPUA = 0x00;
  1045                           
  1046                           ;incstack = 0
  1047                           ; Regs used in _InitApp: [wreg+status,2+status,0]
  1048  00BF  0024               	movlb	4	; select bank4
  1049  00C0  018C               	clrf	12	;volatile
  1050                           
  1051                           ;user.c: 37: INLVLA = 0x00;
  1052  00C1  0027               	movlb	7	; select bank7
  1053  00C2  018C               	clrf	12	;volatile
  1054                           
  1055                           ;user.c: 38: LATA = 0x00;
  1056  00C3  0022               	movlb	2	; select bank2
  1057  00C4  018C               	clrf	12	;volatile
  1058                           
  1059                           ;user.c: 41: WPUC = 0x00;
  1060  00C5  0024               	movlb	4	; select bank4
  1061  00C6  018E               	clrf	14	;volatile
  1062                           
  1063                           ;user.c: 42: INLVLC = 0x00;
  1064  00C7  0027               	movlb	7	; select bank7
  1065  00C8  018E               	clrf	14	;volatile
  1066                           
  1067                           ;user.c: 43: LATC = 0x00;
  1068  00C9  0022               	movlb	2	; select bank2
  1069  00CA  018E               	clrf	14	;volatile
  1070                           
  1071                           ;user.c: 45: IOCAP = 0x00;
  1072  00CB  0027               	movlb	7	; select bank7
  1073  00CC  0191               	clrf	17	;volatile
  1074                           
  1075                           ;user.c: 46: IOCAN = 0x00;
  1076  00CD  0192               	clrf	18	;volatile
  1077                           
  1078                           ;user.c: 48: FVRCONbits.FVREN = 0b0;
  1079  00CE  0022               	movlb	2	; select bank2
  1080  00CF  1397               	bcf	23,7	;volatile
  1081                           
  1082                           ;user.c: 49: FVRCONbits.TSEN = 0b0;
  1083  00D0  1297               	bcf	23,5	;volatile
  1084                           
  1085                           ;user.c: 52: TRISA = 0x00;
  1086  00D1  0021               	movlb	1	; select bank1
  1087  00D2  018C               	clrf	12	;volatile
  1088                           
  1089                           ;user.c: 53: ANSELA = 0x00;
  1090  00D3  0023               	movlb	3	; select bank3
  1091  00D4  018C               	clrf	12	;volatile
  1092                           
  1093                           ;user.c: 55: TRISC = 0b001010;
  1094  00D5  300A               	movlw	10
  1095  00D6  0021               	movlb	1	; select bank1
  1096  00D7  008E               	movwf	14	;volatile
  1097                           
  1098                           ;user.c: 56: ANSELC = 0x00;
  1099  00D8  0023               	movlb	3	; select bank3
  1100  00D9  018E               	clrf	14	;volatile
  1101                           
  1102                           ;user.c: 58: ADCON0bits.ADON = 0b0;
  1103  00DA  0021               	movlb	1	; select bank1
  1104  00DB  101D               	bcf	29,0	;volatile
  1105                           
  1106                           ;user.c: 59: DACCON0bits.DACEN = 0b0;
  1107  00DC  0022               	movlb	2	; select bank2
  1108  00DD  1398               	bcf	24,7	;volatile
  1109                           
  1110                           ;user.c: 60: DACCON0bits.DACOE = 0b0;
  1111  00DE  1298               	bcf	24,5	;volatile
  1112                           
  1113                           ;user.c: 62: SRCON0bits.SRLEN = 0b0;
  1114  00DF  139A               	bcf	26,7	;volatile
  1115                           
  1116                           ;user.c: 64: CM1CON0bits.C1ON = 0b0;
  1117  00E0  1391               	bcf	17,7	;volatile
  1118                           
  1119                           ;user.c: 65: CM2CON0bits.C2ON = 0b0;
  1120  00E1  1393               	bcf	19,7	;volatile
  1121                           
  1122                           ;user.c: 67: MDCONbits.MDEN = 0b0;
  1123  00E2  0027               	movlb	7	; select bank7
  1124  00E3  139C               	bcf	28,7	;volatile
  1125                           
  1126                           ;user.c: 68: CPSCON0bits.CPSON = 0b0;
  1127  00E4  0020               	movlb	0	; select bank0
  1128  00E5  139E               	bcf	30,7	;volatile
  1129                           
  1130                           ;user.c: 71: APFCON0bits.SDOSEL = 0b0;
  1131  00E6  0022               	movlb	2	; select bank2
  1132  00E7  131D               	bcf	29,6	;volatile
  1133                           
  1134                           ;user.c: 72: APFCON0bits.SSSEL = 0b0;
  1135  00E8  129D               	bcf	29,5	;volatile
  1136                           
  1137                           ;user.c: 77: OPTION_REGbits.nWPUEN = 0b1;
  1138  00E9  0021               	movlb	1	; select bank1
  1139  00EA  1795               	bsf	21,7	;volatile
  1140                           
  1141                           ;user.c: 78: OPTION_REGbits.TMR0CS = 0b0;
  1142  00EB  1295               	bcf	21,5	;volatile
  1143                           
  1144                           ;user.c: 79: OPTION_REGbits.PSA = 0b1;
  1145  00EC  1595               	bsf	21,3	;volatile
  1146                           
  1147                           ;user.c: 82: SSP1STATbits.CKE = 0b1;
  1148  00ED  0024               	movlb	4	; select bank4
  1149  00EE  1714               	bsf	20,6	;volatile
  1150                           
  1151                           ;user.c: 84: SSP1CON1bits.SSPEN = 0b1;
  1152  00EF  1695               	bsf	21,5	;volatile
  1153                           
  1154                           ;user.c: 85: SSP1CON1bits.CKP = 0b0;
  1155  00F0  1215               	bcf	21,4	;volatile
  1156                           
  1157                           ;user.c: 86: SSP1CON1bits.SSPM = 0b0000;
  1158  00F1  30F0               	movlw	-16
  1159  00F2  0595               	andwf	21,f	;volatile
  1160                           
  1161                           ;user.c: 91: INTCONbits.GIE = 0b1;
  1162  00F3  178B               	bsf	11,7	;volatile
  1163                           
  1164                           ;user.c: 92: INTCONbits.TMR0IE = 0b1;
  1165  00F4  168B               	bsf	11,5	;volatile
  1166                           
  1167                           ;user.c: 93: INTCONbits.PEIE = 0b1;
  1168  00F5  170B               	bsf	11,6	;volatile
  1169  00F6  0008               	return
  1170  00F7                     __end_of_InitApp:	
  1171                           
  1172                           	psect	text2
  1173  0170                     __ptext2:	
  1174 ;; *************** function _ConfigureOscillator *****************
  1175 ;; Defined at:
  1176 ;;		line 18 in file "system.c"
  1177 ;; Parameters:    Size  Location     Type
  1178 ;;		None
  1179 ;; Auto vars:     Size  Location     Type
  1180 ;;		None
  1181 ;; Return value:  Size  Location     Type
  1182 ;;                  1    wreg      void 
  1183 ;; Registers used:
  1184 ;;		wreg, status,2, status,0
  1185 ;; Tracked objects:
  1186 ;;		On entry : 0/0
  1187 ;;		On exit  : 0/0
  1188 ;;		Unchanged: 0/0
  1189 ;; Data sizes:     COMMON   BANK0   BANK1   BANK2   BANK3   BANK4   BANK5   BANK6   BANK7   BANK8   BANK9  BANK10  BANK1
      +1  BANK12
  1190 ;;      Params:         0       0       0       0       0       0       0       0       0       0       0       0       
      +0       0
  1191 ;;      Locals:         0       0       0       0       0       0       0       0       0       0       0       0       
      +0       0
  1192 ;;      Temps:          0       0       0       0       0       0       0       0       0       0       0       0       
      +0       0
  1193 ;;      Totals:         0       0       0       0       0       0       0       0       0       0       0       0       
      +0       0
  1194 ;;Total ram usage:        0 bytes
  1195 ;; Hardware stack levels used:    1
  1196 ;; Hardware stack levels required when called:    2
  1197 ;; This function calls:
  1198 ;;		Nothing
  1199 ;; This function is called by:
  1200 ;;		_main
  1201 ;; This function uses a non-reentrant model
  1202 ;;
  1203                           
  1204                           
  1205                           ;psect for function _ConfigureOscillator
  1206  0170                     _ConfigureOscillator:	
  1207                           
  1208                           ;system.c: 28: OSCCONbits.IRCF = 0b1110;
  1209                           
  1210                           ;incstack = 0
  1211                           ; Regs used in _ConfigureOscillator: [wreg+status,2+status,0]
  1212  0170  0021               	movlb	1	; select bank1
  1213  0171  0819               	movf	25,w	;volatile
  1214  0172  3987               	andlw	-121
  1215  0173  3870               	iorlw	112
  1216  0174  0099               	movwf	25	;volatile
  1217                           
  1218                           ;system.c: 29: OSCCONbits.SCS = 0b00;
  1219  0175  30FC               	movlw	-4
  1220  0176  0599               	andwf	25,f	;volatile
  1221  0177  0008               	return
  1222  0178                     __end_of_ConfigureOscillator:	
  1223                           
  1224                           	psect	intentry
  1225  0004                     __pintentry:	
  1226 ;; *************** function _isr *****************
  1227 ;; Defined at:
  1228 ;;		line 33 in file "interrupts.c"
  1229 ;; Parameters:    Size  Location     Type
  1230 ;;		None
  1231 ;; Auto vars:     Size  Location     Type
  1232 ;;		None
  1233 ;; Return value:  Size  Location     Type
  1234 ;;                  1    wreg      void 
  1235 ;; Registers used:
  1236 ;;		wreg, fsr1l, fsr1h, status,2, status,0, pclath, cstack
  1237 ;; Tracked objects:
  1238 ;;		On entry : 0/0
  1239 ;;		On exit  : 0/0
  1240 ;;		Unchanged: 0/0
  1241 ;; Data sizes:     COMMON   BANK0   BANK1   BANK2   BANK3   BANK4   BANK5   BANK6   BANK7   BANK8   BANK9  BANK10  BANK1
      +1  BANK12
  1242 ;;      Params:         0       0       0       0       0       0       0       0       0       0       0       0       
      +0       0
  1243 ;;      Locals:         0       0       0       0       0       0       0       0       0       0       0       0       
      +0       0
  1244 ;;      Temps:          1       0       0       0       0       0       0       0       0       0       0       0       
      +0       0
  1245 ;;      Totals:         1       0       0       0       0       0       0       0       0       0       0       0       
      +0       0
  1246 ;;Total ram usage:        1 bytes
  1247 ;; Hardware stack levels used:    1
  1248 ;; Hardware stack levels required when called:    1
  1249 ;; This function calls:
  1250 ;;		_get_next_frame
  1251 ;;		_update_fade
  1252 ;;		_write_leds
  1253 ;; This function is called by:
  1254 ;;		Interrupt level 1
  1255 ;; This function uses a non-reentrant model
  1256 ;;
  1257                           
  1258  0004                     _isr:	
  1259                           
  1260                           ;incstack = 0
  1261  0004  147E               	bsf	126,0	;set compiler interrupt flag (level 1)
  1262                           
  1263                           ; Regs used in _isr: [wreg+fsr1l+fsr1h+status,2+status,0+pclath+cstack]
  1264  0005  3180               	pagesel	$
  1265  0006  0020               	movlb	0	; select bank0
  1266  0007  087F               	movf	127,w
  1267  0008  00FB               	movwf	??_isr
  1268                           
  1269                           ;interrupts.c: 40: if(INTCONbits.TMR0IE == 1 && INTCONbits.TMR0IF == 1)
  1270  0009  1A8B               	btfsc	11,5	;volatile
  1271  000A  1D0B               	btfss	11,2	;volatile
  1272  000B  284D               	goto	i1l24
  1273                           
  1274                           ;interrupts.c: 41: {
  1275                           ;interrupts.c: 42: multiplexed_counter++;
  1276  000C  3001               	movlw	1
  1277  000D  07B2               	addwf	_multiplexed_counter,f
  1278  000E  3000               	movlw	0
  1279  000F  3DB3               	addwfc	_multiplexed_counter+1,f
  1280                           
  1281                           ;interrupts.c: 45: if(multiplexed_counter >= 10)
  1282  0010  3000               	movlw	0
  1283  0011  0233               	subwf	_multiplexed_counter+1,w
  1284  0012  300A               	movlw	10
  1285  0013  1903               	skipnz
  1286  0014  0232               	subwf	_multiplexed_counter,w
  1287  0015  1C03               	skipc
  1288  0016  284C               	goto	i1l809
  1289                           
  1290                           ;interrupts.c: 46: {
  1291                           ;interrupts.c: 48: multiplexed_counter = 0;
  1292  0017  01B2               	clrf	_multiplexed_counter
  1293  0018  01B3               	clrf	_multiplexed_counter+1
  1294                           
  1295                           ;interrupts.c: 52: write_leds();
  1296  0019  3181  212D  3180   	fcall	_write_leds
  1297                           
  1298                           ;interrupts.c: 54: next_frame_counter++;
  1299  001C  3001               	movlw	1
  1300  001D  0020               	movlb	0	; select bank0
  1301  001E  07B4               	addwf	_next_frame_counter,f
  1302  001F  3000               	movlw	0
  1303  0020  3DB5               	addwfc	_next_frame_counter+1,f
  1304                           
  1305                           ;interrupts.c: 55: multiplexed_segment_counter++;
  1306  0021  3001               	movlw	1
  1307  0022  07F4               	addwf	_multiplexed_segment_counter,f
  1308  0023  3000               	movlw	0
  1309  0024  3DF5               	addwfc	_multiplexed_segment_counter+1,f
  1310                           
  1311                           ;interrupts.c: 57: if(multiplexed_segment_counter > 2)
  1312  0025  3000               	movlw	0
  1313  0026  0275               	subwf	_multiplexed_segment_counter+1,w
  1314  0027  3003               	movlw	3
  1315  0028  1903               	skipnz
  1316  0029  0274               	subwf	_multiplexed_segment_counter,w
  1317  002A  1C03               	skipc
  1318  002B  2840               	goto	i1l803
  1319                           
  1320                           ;interrupts.c: 58: {
  1321                           ;interrupts.c: 59: multiplexed_segment_counter = 0;
  1322  002C  01F4               	clrf	_multiplexed_segment_counter
  1323  002D  01F5               	clrf	_multiplexed_segment_counter+1
  1324                           
  1325                           ;interrupts.c: 61: if(fade_frame_counter> 8)
  1326  002E  3000               	movlw	0
  1327  002F  027D               	subwf	_fade_frame_counter+1,w
  1328  0030  3009               	movlw	9
  1329  0031  1903               	skipnz
  1330  0032  027C               	subwf	_fade_frame_counter,w
  1331  0033  1C03               	skipc
  1332  0034  2839               	goto	i1l799
  1333                           
  1334                           ;interrupts.c: 62: {
  1335                           ;interrupts.c: 63: fade_frame_counter = 1;
  1336  0035  3001               	movlw	1
  1337  0036  00FC               	movwf	_fade_frame_counter
  1338  0037  3000               	movlw	0
  1339  0038  00FD               	movwf	_fade_frame_counter+1
  1340  0039                     i1l799:	
  1341                           
  1342                           ;interrupts.c: 64: }
  1343                           ;interrupts.c: 66: update_fade();
  1344  0039  3180  2075  3180   	fcall	_update_fade
  1345                           
  1346                           ;interrupts.c: 68: fade_frame_counter++;
  1347  003C  3001               	movlw	1
  1348  003D  07FC               	addwf	_fade_frame_counter,f
  1349  003E  3000               	movlw	0
  1350  003F  3DFD               	addwfc	_fade_frame_counter+1,f
  1351  0040                     i1l803:	
  1352                           
  1353                           ;interrupts.c: 69: }
  1354                           ;interrupts.c: 72: if(next_frame_counter >= 200)
  1355  0040  3000               	movlw	0
  1356  0041  0020               	movlb	0	; select bank0
  1357  0042  0235               	subwf	_next_frame_counter+1,w
  1358  0043  30C8               	movlw	200
  1359  0044  1903               	skipnz
  1360  0045  0234               	subwf	_next_frame_counter,w
  1361  0046  1C03               	skipc
  1362  0047  284C               	goto	i1l809
  1363                           
  1364                           ;interrupts.c: 73: {
  1365                           ;interrupts.c: 75: next_frame_counter = 0;
  1366  0048  01B4               	clrf	_next_frame_counter
  1367  0049  01B5               	clrf	_next_frame_counter+1
  1368                           
  1369                           ;interrupts.c: 77: get_next_frame();
  1370  004A  3180  20F7         	fcall	_get_next_frame
  1371  004C                     i1l809:	
  1372                           
  1373                           ;interrupts.c: 78: }
  1374                           ;interrupts.c: 81: }
  1375                           ;interrupts.c: 83: INTCONbits.TMR0IF = 0;
  1376  004C  110B               	bcf	11,2	;volatile
  1377  004D                     i1l24:	
  1378  004D  087B               	movf	??_isr,w
  1379  004E  0020               	movlb	0	; select bank0
  1380  004F  00FF               	movwf	127
  1381  0050  107E               	bcf	126,0	;clear compiler interrupt flag (level 1)
  1382  0051  0009               	retfie
  1383  0052                     __end_of_isr:	
  1384                           
  1385                           	psect	text4
  1386  012D                     __ptext4:	
  1387 ;; *************** function _write_leds *****************
  1388 ;; Defined at:
  1389 ;;		line 97 in file "user.c"
  1390 ;; Parameters:    Size  Location     Type
  1391 ;;		None
  1392 ;; Auto vars:     Size  Location     Type
  1393 ;;		None
  1394 ;; Return value:  Size  Location     Type
  1395 ;;                  1    wreg      void 
  1396 ;; Registers used:
  1397 ;;		wreg, status,2, status,0
  1398 ;; Tracked objects:
  1399 ;;		On entry : 0/0
  1400 ;;		On exit  : 0/0
  1401 ;;		Unchanged: 0/0
  1402 ;; Data sizes:     COMMON   BANK0   BANK1   BANK2   BANK3   BANK4   BANK5   BANK6   BANK7   BANK8   BANK9  BANK10  BANK1
      +1  BANK12
  1403 ;;      Params:         0       0       0       0       0       0       0       0       0       0       0       0       
      +0       0
  1404 ;;      Locals:         0       0       0       0       0       0       0       0       0       0       0       0       
      +0       0
  1405 ;;      Temps:          4       0       0       0       0       0       0       0       0       0       0       0       
      +0       0
  1406 ;;      Totals:         4       0       0       0       0       0       0       0       0       0       0       0       
      +0       0
  1407 ;;Total ram usage:        4 bytes
  1408 ;; Hardware stack levels used:    1
  1409 ;; This function calls:
  1410 ;;		Nothing
  1411 ;; This function is called by:
  1412 ;;		_isr
  1413 ;; This function uses a non-reentrant model
  1414 ;;
  1415                           
  1416                           
  1417                           ;psect for function _write_leds
  1418  012D                     _write_leds:	
  1419                           
  1420                           ;user.c: 99: SSP1BUF = 1 << multiplexed_segment_counter;
  1421                           
  1422                           ;incstack = 0
  1423                           ; Regs used in _write_leds: [wreg+status,2+status,0]
  1424  012D  3001               	movlw	1
  1425  012E  00F6               	movwf	??_write_leds
  1426  012F  0A74               	incf	_multiplexed_segment_counter,w
  1427  0130  2932               	goto	u19_24
  1428  0131                     u19_25:	
  1429  0131  35F6               	lslf	??_write_leds,f
  1430  0132                     u19_24:	
  1431  0132  0B89               	decfsz	9,f
  1432  0133  2931               	goto	u19_25
  1433  0134  0876               	movf	??_write_leds,w
  1434  0135  0024               	movlb	4	; select bank4
  1435  0136  0091               	movwf	17	;volatile
  1436  0137                     i1l123:	
  1437                           ;user.c: 100: while(SSP1STATbits.BF == 0);
  1438                           
  1439  0137  1C14               	btfss	20,0	;volatile
  1440  0138  2937               	goto	i1l123
  1441                           
  1442                           ;user.c: 101: clear_buffer_flag = SSP1BUF;
  1443  0139  0811               	movf	17,w	;volatile
  1444  013A  00F6               	movwf	??_write_leds
  1445  013B  0876               	movf	??_write_leds,w
  1446  013C  00F3               	movwf	_clear_buffer_flag
  1447                           
  1448                           ;user.c: 102: SSP1BUF = ~(fade_frame >> (multiplexed_segment_counter * 8));
  1449  013D  0870               	movf	_fade_frame,w
  1450  013E  00F6               	movwf	??_write_leds
  1451  013F  0871               	movf	_fade_frame+1,w
  1452  0140  00F7               	movwf	??_write_leds+1
  1453  0141  0872               	movf	_fade_frame+2,w
  1454  0142  00F8               	movwf	??_write_leds+2
  1455  0143  0874               	movf	_multiplexed_segment_counter,w
  1456  0144  00F9               	movwf	??_write_leds+3
  1457  0145  3002               	movlw	2
  1458  0146                     u21_25:	
  1459  0146  35F9               	lslf	??_write_leds+3,f
  1460  0147  3EFF               	addlw	-1
  1461  0148  1D03               	skipz
  1462  0149  2946               	goto	u21_25
  1463  014A  3579               	lslf	??_write_leds+3,w
  1464  014B  0A89               	incf	9,f
  1465  014C  2950               	goto	u22_20
  1466  014D                     u22_25:	
  1467  014D  36F8               	lsrf	??_write_leds+2,f
  1468  014E  0CF7               	rrf	??_write_leds+1,f
  1469  014F  0CF6               	rrf	??_write_leds,f
  1470  0150                     u22_20:	
  1471  0150  0B89               	decfsz	9,f
  1472  0151  294D               	goto	u22_25
  1473  0152  0976               	comf	??_write_leds,w
  1474  0153  0091               	movwf	17	;volatile
  1475  0154                     i1l126:	
  1476                           ;user.c: 103: while(SSP1STATbits.BF == 0);
  1477                           
  1478  0154  1C14               	btfss	20,0	;volatile
  1479  0155  2954               	goto	i1l126
  1480                           
  1481                           ;user.c: 104: clear_buffer_flag = SSP1BUF;
  1482  0156  0811               	movf	17,w	;volatile
  1483  0157  00F6               	movwf	??_write_leds
  1484  0158  0876               	movf	??_write_leds,w
  1485  0159  00F3               	movwf	_clear_buffer_flag
  1486                           
  1487                           ;user.c: 105: LATCbits.LATC5 = 1;
  1488  015A  0022               	movlb	2	; select bank2
  1489  015B  168E               	bsf	14,5	;volatile
  1490                           
  1491                           ;user.c: 106: LATCbits.LATC5 = 0;
  1492  015C  128E               	bcf	14,5	;volatile
  1493  015D  0008               	return
  1494  015E                     __end_of_write_leds:	
  1495                           
  1496                           	psect	text5
  1497  0075                     __ptext5:	
  1498 ;; *************** function _update_fade *****************
  1499 ;; Defined at:
  1500 ;;		line 109 in file "user.c"
  1501 ;; Parameters:    Size  Location     Type
  1502 ;;		None
  1503 ;; Auto vars:     Size  Location     Type
  1504 ;;  i               2    3[COMMON] int 
  1505 ;; Return value:  Size  Location     Type
  1506 ;;                  1    wreg      void 
  1507 ;; Registers used:
  1508 ;;		wreg, fsr1l, fsr1h, status,2, status,0
  1509 ;; Tracked objects:
  1510 ;;		On entry : 0/0
  1511 ;;		On exit  : 0/0
  1512 ;;		Unchanged: 0/0
  1513 ;; Data sizes:     COMMON   BANK0   BANK1   BANK2   BANK3   BANK4   BANK5   BANK6   BANK7   BANK8   BANK9  BANK10  BANK1
      +1  BANK12
  1514 ;;      Params:         0       0       0       0       0       0       0       0       0       0       0       0       
      +0       0
  1515 ;;      Locals:         2       0       0       0       0       0       0       0       0       0       0       0       
      +0       0
  1516 ;;      Temps:          3       0       0       0       0       0       0       0       0       0       0       0       
      +0       0
  1517 ;;      Totals:         5       0       0       0       0       0       0       0       0       0       0       0       
      +0       0
  1518 ;;Total ram usage:        5 bytes
  1519 ;; Hardware stack levels used:    1
  1520 ;; This function calls:
  1521 ;;		Nothing
  1522 ;; This function is called by:
  1523 ;;		_isr
  1524 ;; This function uses a non-reentrant model
  1525 ;;
  1526                           
  1527                           
  1528                           ;psect for function _update_fade
  1529  0075                     _update_fade:	
  1530                           
  1531                           ;user.c: 111: int i = 0;
  1532                           
  1533                           ;incstack = 0
  1534                           ; Regs used in _update_fade: [wreg+fsr1l+fsr1h+status,2+status,0]
  1535  0075  01F9               	clrf	update_fade@i
  1536  0076  01FA               	clrf	update_fade@i+1
  1537                           
  1538                           ;user.c: 113: for(i = 0; i < 18; i++)
  1539  0077  01F9               	clrf	update_fade@i
  1540  0078  01FA               	clrf	update_fade@i+1
  1541  0079                     L2:	
  1542  0079  087A               	movf	update_fade@i+1,w
  1543  007A  3A80               	xorlw	128
  1544  007B  00F6               	movwf	??_update_fade
  1545  007C  3080               	movlw	128
  1546  007D  0276               	subwf	??_update_fade,w
  1547  007E  1D03               	skipz
  1548  007F  2882               	goto	u24_25
  1549  0080  3012               	movlw	18
  1550  0081  0279               	subwf	update_fade@i,w
  1551  0082                     u24_25:	
  1552  0082  1803               	btfsc	3,0
  1553  0083  0008               	return
  1554                           
  1555                           ;user.c: 114: {
  1556                           ;user.c: 115: if(current_frame[i] >= fade_frame_counter)
  1557  0084  0879               	movf	update_fade@i,w
  1558  0085  3E20               	addlw	(low (_current_frame| 0))& (0+255)
  1559  0086  0086               	movwf	6
  1560  0087  0187               	clrf	7
  1561  0088  0801               	movf	1,w
  1562  0089  00F6               	movwf	??_update_fade
  1563  008A  01F7               	clrf	??_update_fade+1
  1564  008B  087D               	movf	_fade_frame_counter+1,w
  1565  008C  0277               	subwf	??_update_fade+1,w
  1566  008D  1D03               	skipz
  1567  008E  2891               	goto	u25_25
  1568  008F  087C               	movf	_fade_frame_counter,w
  1569  0090  0276               	subwf	??_update_fade,w
  1570  0091                     u25_25:	
  1571  0091  1C03               	skipc
  1572  0092  28A8               	goto	i1l755
  1573                           
  1574                           ;user.c: 116: {
  1575                           ;user.c: 117: fade_frame = (fade_frame << 1) + 1;
  1576  0093  0870               	movf	_fade_frame,w
  1577  0094  00F6               	movwf	??_update_fade
  1578  0095  0871               	movf	_fade_frame+1,w
  1579  0096  00F7               	movwf	??_update_fade+1
  1580  0097  0872               	movf	_fade_frame+2,w
  1581  0098  00F8               	movwf	??_update_fade+2
  1582  0099  3001               	movlw	1
  1583  009A                     u26_25:	
  1584  009A  35F6               	lslf	??_update_fade,f
  1585  009B  0DF7               	rlf	??_update_fade+1,f
  1586  009C  0DF8               	rlf	??_update_fade+2,f
  1587  009D  0B89               	decfsz	9,f
  1588  009E  289A               	goto	u26_25
  1589  009F  3001               	movlw	1
  1590  00A0  0776               	addwf	??_update_fade,w
  1591  00A1  00F0               	movwf	_fade_frame
  1592  00A2  3000               	movlw	0
  1593  00A3  3D77               	addwfc	??_update_fade+1,w
  1594  00A4  00F1               	movwf	_fade_frame+1
  1595  00A5  3000               	movlw	0
  1596  00A6  3D78               	addwfc	??_update_fade+2,w
  1597  00A7  28B9               	goto	L1
  1598  00A8                     i1l755:	
  1599                           ;user.c: 118: }
  1600                           
  1601                           
  1602                           ;user.c: 120: else
  1603                           ;user.c: 121: {
  1604                           ;user.c: 122: fade_frame = fade_frame << 1;
  1605  00A8  0870               	movf	_fade_frame,w
  1606  00A9  00F6               	movwf	??_update_fade
  1607  00AA  0871               	movf	_fade_frame+1,w
  1608  00AB  00F7               	movwf	??_update_fade+1
  1609  00AC  0872               	movf	_fade_frame+2,w
  1610  00AD  00F8               	movwf	??_update_fade+2
  1611  00AE  3001               	movlw	1
  1612  00AF                     u27_25:	
  1613  00AF  35F6               	lslf	??_update_fade,f
  1614  00B0  0DF7               	rlf	??_update_fade+1,f
  1615  00B1  0DF8               	rlf	??_update_fade+2,f
  1616  00B2  0B89               	decfsz	9,f
  1617  00B3  28AF               	goto	u27_25
  1618  00B4  0876               	movf	??_update_fade,w
  1619  00B5  00F0               	movwf	_fade_frame
  1620  00B6  0877               	movf	??_update_fade+1,w
  1621  00B7  00F1               	movwf	_fade_frame+1
  1622  00B8  0878               	movf	??_update_fade+2,w
  1623  00B9                     L1:	
  1624  00B9  00F2               	movwf	_fade_frame+2
  1625  00BA  3001               	movlw	1
  1626  00BB  07F9               	addwf	update_fade@i,f
  1627  00BC  3000               	movlw	0
  1628  00BD  3DFA               	addwfc	update_fade@i+1,f
  1629  00BE  2879               	goto	L2
  1630  00BF                     __end_of_update_fade:	
  1631                           
  1632                           	psect	text6
  1633  00F7                     __ptext6:	
  1634 ;; *************** function _get_next_frame *****************
  1635 ;; Defined at:
  1636 ;;		line 127 in file "user.c"
  1637 ;; Parameters:    Size  Location     Type
  1638 ;;		None
  1639 ;; Auto vars:     Size  Location     Type
  1640 ;;  i               2    2[COMMON] int 
  1641 ;;  temp            1    1[COMMON] unsigned char 
  1642 ;; Return value:  Size  Location     Type
  1643 ;;                  1    wreg      void 
  1644 ;; Registers used:
  1645 ;;		wreg, fsr1l, fsr1h, status,2, status,0
  1646 ;; Tracked objects:
  1647 ;;		On entry : 0/0
  1648 ;;		On exit  : 0/0
  1649 ;;		Unchanged: 0/0
  1650 ;; Data sizes:     COMMON   BANK0   BANK1   BANK2   BANK3   BANK4   BANK5   BANK6   BANK7   BANK8   BANK9  BANK10  BANK1
      +1  BANK12
  1651 ;;      Params:         0       0       0       0       0       0       0       0       0       0       0       0       
      +0       0
  1652 ;;      Locals:         3       0       0       0       0       0       0       0       0       0       0       0       
      +0       0
  1653 ;;      Temps:          1       0       0       0       0       0       0       0       0       0       0       0       
      +0       0
  1654 ;;      Totals:         4       0       0       0       0       0       0       0       0       0       0       0       
      +0       0
  1655 ;;Total ram usage:        4 bytes
  1656 ;; Hardware stack levels used:    1
  1657 ;; This function calls:
  1658 ;;		Nothing
  1659 ;; This function is called by:
  1660 ;;		_isr
  1661 ;; This function uses a non-reentrant model
  1662 ;;
  1663                           
  1664                           
  1665                           ;psect for function _get_next_frame
  1666  00F7                     _get_next_frame:	
  1667                           
  1668                           ;user.c: 129: unsigned char temp;
  1669                           ;user.c: 130: int i = 0;
  1670                           
  1671                           ;incstack = 0
  1672                           ; Regs used in _get_next_frame: [wreg+fsr1l+fsr1h+status,2+status,0]
  1673  00F7  01F8               	clrf	get_next_frame@i
  1674  00F8  01F9               	clrf	get_next_frame@i+1
  1675                           
  1676                           ;user.c: 132: temp = current_frame[0];
  1677  00F9  0020               	movlb	0	; select bank0
  1678  00FA  0820               	movf	_current_frame,w
  1679  00FB  00F6               	movwf	??_get_next_frame
  1680  00FC  0876               	movf	??_get_next_frame,w
  1681  00FD  00F7               	movwf	get_next_frame@temp
  1682                           
  1683                           ;user.c: 134: for(i = 0; i < 17; i++)
  1684  00FE  01F8               	clrf	get_next_frame@i
  1685  00FF  01F9               	clrf	get_next_frame@i+1
  1686  0100  0879               	movf	get_next_frame@i+1,w
  1687  0101  3A80               	xorlw	128
  1688  0102  00F6               	movwf	??_get_next_frame
  1689  0103  3080               	movlw	128
  1690  0104  0276               	subwf	??_get_next_frame,w
  1691  0105  1D03               	skipz
  1692  0106  2909               	goto	u29_25
  1693  0107  3011               	movlw	17
  1694  0108  0278               	subwf	get_next_frame@i,w
  1695  0109                     u29_25:	
  1696  0109  1803               	btfsc	3,0
  1697  010A  2927               	goto	i1l775
  1698  010B                     i1l769:	
  1699                           
  1700                           ;user.c: 135: {
  1701                           ;user.c: 136: current_frame[i] = current_frame[i+1];
  1702  010B  0878               	movf	get_next_frame@i,w
  1703  010C  3E01               	addlw	1
  1704  010D  3E20               	addlw	(low (_current_frame| 0))& (0+255)
  1705  010E  0086               	movwf	6
  1706  010F  0187               	clrf	7
  1707  0110  0801               	movf	1,w
  1708  0111  00F6               	movwf	??_get_next_frame
  1709  0112  0878               	movf	get_next_frame@i,w
  1710  0113  3E20               	addlw	(low (_current_frame| 0))& (0+255)
  1711  0114  0086               	movwf	6
  1712  0115  0187               	clrf	7
  1713  0116  0876               	movf	??_get_next_frame,w
  1714  0117  0081               	movwf	1
  1715  0118  3001               	movlw	1
  1716  0119  07F8               	addwf	get_next_frame@i,f
  1717  011A  3000               	movlw	0
  1718  011B  3DF9               	addwfc	get_next_frame@i+1,f
  1719  011C  0879               	movf	get_next_frame@i+1,w
  1720  011D  3A80               	xorlw	128
  1721  011E  00F6               	movwf	??_get_next_frame
  1722  011F  3080               	movlw	128
  1723  0120  0276               	subwf	??_get_next_frame,w
  1724  0121  1D03               	skipz
  1725  0122  2925               	goto	u30_25
  1726  0123  3011               	movlw	17
  1727  0124  0278               	subwf	get_next_frame@i,w
  1728  0125                     u30_25:	
  1729  0125  1C03               	skipc
  1730  0126  290B               	goto	i1l769
  1731  0127                     i1l775:	
  1732                           
  1733                           ;user.c: 137: }
  1734                           ;user.c: 139: current_frame[17] = temp;
  1735  0127  0877               	movf	get_next_frame@temp,w
  1736  0128  00F6               	movwf	??_get_next_frame
  1737  0129  0876               	movf	??_get_next_frame,w
  1738  012A  0020               	movlb	0	; select bank0
  1739  012B  00B1               	movwf	_current_frame+17
  1740  012C  0008               	return
  1741  012D                     __end_of_get_next_frame:	
  1742  007E                     btemp	set	126	;btemp
  1743  007E                     int$flags	set	126
  1744  007E                     wtemp	set	126
  1745  007E                     wtemp0	set	126
  1746  0080                     wtemp1	set	128
  1747  0082                     wtemp2	set	130
  1748  0084                     wtemp3	set	132
  1749  0086                     wtemp4	set	134
  1750  0088                     wtemp5	set	136
  1751  007F                     wtemp6	set	127
  1752  007E                     ttemp	set	126
  1753  007E                     ttemp0	set	126
  1754  0081                     ttemp1	set	129
  1755  0084                     ttemp2	set	132
  1756  0087                     ttemp3	set	135
  1757  007F                     ttemp4	set	127
  1758  007E                     ltemp	set	126
  1759  007E                     ltemp0	set	126
  1760  0082                     ltemp1	set	130
  1761  0086                     ltemp2	set	134
  1762  0080                     ltemp3	set	128


Data Sizes:
    Strings     0
    Constant    0
    Data        20
    BSS         10
    Persistent  0
    Stack       0

Auto Spaces:
    Space          Size  Autos    Used
    COMMON           14      6      14
    BANK0            80      0      22
    BANK1            80      0       0
    BANK2            80      0       0
    BANK3            80      0       0
    BANK4            80      0       0
    BANK5            80      0       0
    BANK6            80      0       0
    BANK7            80      0       0
    BANK8            80      0       0
    BANK9            80      0       0
    BANK10           80      0       0
    BANK11           80      0       0
    BANK12           48      0       0

Pointer List with Targets:

    None.

Critical Paths under _main in COMMON

    None.

Critical Paths under _isr in COMMON

    _isr->_update_fade

Critical Paths under _main in BANK0

    None.

Critical Paths under _isr in BANK0

    None.

Critical Paths under _main in BANK1

    None.

Critical Paths under _isr in BANK1

    None.

Critical Paths under _main in BANK2

    None.

Critical Paths under _isr in BANK2

    None.

Critical Paths under _main in BANK3

    None.

Critical Paths under _isr in BANK3

    None.

Critical Paths under _main in BANK4

    None.

Critical Paths under _isr in BANK4

    None.

Critical Paths under _main in BANK5

    None.

Critical Paths under _isr in BANK5

    None.

Critical Paths under _main in BANK6

    None.

Critical Paths under _isr in BANK6

    None.

Critical Paths under _main in BANK7

    None.

Critical Paths under _isr in BANK7

    None.

Critical Paths under _main in BANK8

    None.

Critical Paths under _isr in BANK8

    None.

Critical Paths under _main in BANK9

    None.

Critical Paths under _isr in BANK9

    None.

Critical Paths under _main in BANK10

    None.

Critical Paths under _isr in BANK10

    None.

Critical Paths under _main in BANK11

    None.

Critical Paths under _isr in BANK11

    None.

Critical Paths under _main in BANK12

    None.

Critical Paths under _isr in BANK12

    None.

Call Graph Tables:

 ---------------------------------------------------------------------------------
 (Depth) Function   	        Calls       Base Space   Used Autos Params    Refs
 ---------------------------------------------------------------------------------
 (0) _main                                                 0     0      0       0
                _ConfigureOscillator
                            _InitApp
 ---------------------------------------------------------------------------------
 (1) _InitApp                                              0     0      0       0
 ---------------------------------------------------------------------------------
 (1) _ConfigureOscillator                                  0     0      0       0
 ---------------------------------------------------------------------------------
 Estimated maximum stack depth 1
 ---------------------------------------------------------------------------------
 (Depth) Function   	        Calls       Base Space   Used Autos Params    Refs
 ---------------------------------------------------------------------------------
 (2) _isr                                                  1     1      0     183
                                              5 COMMON     1     1      0
                     _get_next_frame
                        _update_fade
                         _write_leds
 ---------------------------------------------------------------------------------
 (3) _write_leds                                           4     4      0       0
                                              0 COMMON     4     4      0
 ---------------------------------------------------------------------------------
 (3) _update_fade                                          5     5      0      69
                                              0 COMMON     5     5      0
 ---------------------------------------------------------------------------------
 (3) _get_next_frame                                       4     4      0     114
                                              0 COMMON     4     4      0
 ---------------------------------------------------------------------------------
 Estimated maximum stack depth 3
 ---------------------------------------------------------------------------------

 Call Graph Graphs:

 _main (ROOT)
   _ConfigureOscillator
   _InitApp

 _isr (ROOT)
   _get_next_frame
   _update_fade
   _write_leds

 Address spaces:
Name               Size   Autos  Total    Cost      Usage
BIGRAM             3F0      0       0       0        0.0%
EEDATA             100      0       0       0        0.0%
NULL                 0      0       0       0        0.0%
CODE                 0      0       0       0        0.0%
BITCOMMON            E      0       0       1        0.0%
BITSFR0              0      0       0       1        0.0%
SFR0                 0      0       0       1        0.0%
COMMON               E      6       E       2      100.0%
BITSFR1              0      0       0       2        0.0%
SFR1                 0      0       0       2        0.0%
BITSFR2              0      0       0       3        0.0%
SFR2                 0      0       0       3        0.0%
STACK                0      0       0       3        0.0%
BITBANK0            50      0       0       4        0.0%
BITSFR3              0      0       0       4        0.0%
SFR3                 0      0       0       4        0.0%
BANK0               50      0      16       5       27.5%
BITSFR4              0      0       0       5        0.0%
SFR4                 0      0       0       5        0.0%
BITBANK1            50      0       0       6        0.0%
BITSFR5              0      0       0       6        0.0%
SFR5                 0      0       0       6        0.0%
BANK1               50      0       0       7        0.0%
BITSFR6              0      0       0       7        0.0%
SFR6                 0      0       0       7        0.0%
BITBANK2            50      0       0       8        0.0%
BITSFR7              0      0       0       8        0.0%
SFR7                 0      0       0       8        0.0%
BANK2               50      0       0       9        0.0%
BITSFR8              0      0       0       9        0.0%
SFR8                 0      0       0       9        0.0%
BITBANK3            50      0       0      10        0.0%
BITSFR9              0      0       0      10        0.0%
SFR9                 0      0       0      10        0.0%
BANK3               50      0       0      11        0.0%
BITSFR10             0      0       0      11        0.0%
SFR10                0      0       0      11        0.0%
BITBANK4            50      0       0      12        0.0%
BITSFR11             0      0       0      12        0.0%
SFR11                0      0       0      12        0.0%
BANK4               50      0       0      13        0.0%
BITSFR12             0      0       0      13        0.0%
SFR12                0      0       0      13        0.0%
BITBANK5            50      0       0      14        0.0%
BITSFR13             0      0       0      14        0.0%
SFR13                0      0       0      14        0.0%
BANK5               50      0       0      15        0.0%
BITSFR14             0      0       0      15        0.0%
SFR14                0      0       0      15        0.0%
BITBANK6            50      0       0      16        0.0%
BITSFR15             0      0       0      16        0.0%
SFR15                0      0       0      16        0.0%
BANK6               50      0       0      17        0.0%
BITSFR16             0      0       0      17        0.0%
SFR16                0      0       0      17        0.0%
BITBANK7            50      0       0      18        0.0%
BITSFR17             0      0       0      18        0.0%
SFR17                0      0       0      18        0.0%
BANK7               50      0       0      19        0.0%
BITSFR18             0      0       0      19        0.0%
SFR18                0      0       0      19        0.0%
BITSFR19             0      0       0      20        0.0%
SFR19                0      0       0      20        0.0%
ABS                  0      0      24      20        0.0%
BITBANK8            50      0       0      21        0.0%
BITSFR20             0      0       0      21        0.0%
SFR20                0      0       0      21        0.0%
BANK8               50      0       0      22        0.0%
BITSFR21             0      0       0      22        0.0%
SFR21                0      0       0      22        0.0%
BITBANK9            50      0       0      23        0.0%
BITSFR22             0      0       0      23        0.0%
SFR22                0      0       0      23        0.0%
BANK9               50      0       0      24        0.0%
BITSFR23             0      0       0      24        0.0%
SFR23                0      0       0      24        0.0%
BITBANK10           50      0       0      25        0.0%
BITSFR24             0      0       0      25        0.0%
SFR24                0      0       0      25        0.0%
BANK10              50      0       0      26        0.0%
BITSFR25             0      0       0      26        0.0%
SFR25                0      0       0      26        0.0%
BITBANK11           50      0       0      27        0.0%
BITSFR26             0      0       0      27        0.0%
SFR26                0      0       0      27        0.0%
BANK11              50      0       0      28        0.0%
BITSFR27             0      0       0      28        0.0%
SFR27                0      0       0      28        0.0%
BITBANK12           30      0       0      29        0.0%
BITSFR28             0      0       0      29        0.0%
SFR28                0      0       0      29        0.0%
BANK12              30      0       0      30        0.0%
BITSFR29             0      0       0      30        0.0%
SFR29                0      0       0      30        0.0%
BITSFR30             0      0       0      31        0.0%
SFR30                0      0       0      31        0.0%
DATA                 0      0      24      31        0.0%
BITSFR31             0      0       0      32        0.0%
SFR31                0      0       0      32        0.0%


Microchip Technology PIC Macro Assembler V1.38 build -256452561 
Symbol Table                                                                                   Wed Dec 14 13:36:03 2016

                 __CFG_CP$OFF 0000                            l45 017E               ?_get_next_frame 0076  
                __CFG_CPD$OFF 0000                           _isr 0004                  __CFG_BORV$LO 0000  
                         wreg 0009                  __CFG_IESO$ON 0000                  __CFG_LVP$OFF 0000  
                        ?_isr 0076                          _LATA 010C                          _LATC 010E  
                        i1l24 004D                          _WPUA 020C                          _WPUC 020E  
               __CFG_FCMEN$ON 0000                          _main 0178                          fsr0h 0005  
                        fsr1h 0007                          fsr0l 0004                          indf1 0001  
                        fsr1l 0006                          btemp 007E                 __CFG_BOREN$ON 0000  
                        ltemp 007E                          start 0052                          ttemp 007E  
                        wtemp 007E                 __CFG_MCLRE$ON 0000               __end_of_InitApp 00F7  
                       ??_isr 007B                 __CFG_PLLEN$ON 0000                         ?_main 0076  
               __CFG_WDTE$OFF 0000                         _IOCAN 0392                         _IOCAP 0391  
                       i1l123 0137                         i1l126 0154                         i1l803 0040  
                       i1l809 004C                         i1l755 00A8                         i1l775 0127  
                       i1l769 010B                         i1l799 0039                         u21_25 0146  
                       u22_20 0150                         u30_25 0125                         u22_25 014D  
                       u24_25 0082                         u25_25 0091                         u26_25 009A  
                       u19_24 0132                         u27_25 00AF                         u19_25 0131  
                       u29_25 0109                         _TRISA 008C                         _TRISC 008E  
         _ConfigureOscillator 0170                 __CFG_WRT$BOOT 0000                         ltemp0 007E  
                       ltemp1 0082                         ltemp2 0086                         ltemp3 0080  
                       ttemp0 007E                         ttemp1 0081                         ttemp2 0084  
                       ttemp3 0087                         ttemp4 007F                         wtemp0 007E  
                       wtemp1 0080                         wtemp2 0082                         wtemp3 0084  
                       wtemp4 0086                         wtemp5 0088                         wtemp6 007F  
         _multiplexed_counter 0032          ?_ConfigureOscillator 0076               __initialization 0054  
                update_fade@i 0079                  __end_of_main 017F                        ??_main 0000  
                      _ANSELA 018C                        _ANSELC 018E                        _INLVLA 038C  
                      _INLVLC 038E                     ??_InitApp 0000         ??_ConfigureOscillator 0000  
              __CFG_PWRTE$OFF 0000                __CFG_STVREN$ON 0000            get_next_frame@temp 0077  
                __pdataCOMMON 007C       __end_of__initialization 0071                  ?_update_fade 0076  
              __pcstackCOMMON 0076              ??_get_next_frame 0076                  __pidataBANK0 015E  
              _OPTION_REGbits 0095                    _fade_frame 0070                    __pbssBANK0 0032  
               _current_frame 0020                    __pmaintext 0178            _fade_frame_counter 007C  
                  __pintentry 0004                       _SSP1BUF 0211                       _InitApp 00BF  
                     __ptext1 00BF                       __ptext2 0170                       __ptext4 012D  
                     __ptext5 0075                       __ptext6 00F7                  __size_of_isr 004E  
                   _MDCONbits 039C          end_of_initialization 0071                       init_ram 017F  
                     initloop 0180          __size_of_update_fade 004A              __CFG_FOSC$INTOSC 0000  
                 _DACCON0bits 0118   __end_of_ConfigureOscillator 0178                   _CM1CON0bits 0111  
                 _CM2CON0bits 0113             _clear_buffer_flag 0073                 __pidataCOMMON 0185  
                  _write_leds 012D           start_initialization 0054                   __end_of_isr 0052  
 _multiplexed_segment_counter 0074                   _APFCON0bits 011D                   __pdataBANK0 0020  
                 __pbssCOMMON 0070                     ___latbits 0002                 __pcstackBANK0 0000  
             get_next_frame@i 0078                      ?_InitApp 0076                   ?_write_leds 0076  
                 _CPSCON0bits 001E       __size_of_get_next_frame 0036                      _LATCbits 010E  
                  _ADCON0bits 009D           __size_of_write_leds 0031              __size_of_InitApp 0038  
               ??_update_fade 0076                  _SSP1CON1bits 0215                 __size_of_main 0007  
__size_of_ConfigureOscillator 0008                      int$flags 007E                  _SSP1STATbits 0214  
         __end_of_update_fade 00BF                _get_next_frame 00F7                    _INTCONbits 000B  
                  _FVRCONbits 0117            _next_frame_counter 0034                      intlevel1 0000  
           __CFG_CLKOUTEN$OFF 0000                    _OSCCONbits 0099                  ??_write_leds 0076  
      __end_of_get_next_frame 012D                    _SRCON0bits 011A            __end_of_write_leds 015E  
                 _update_fade 0075  
